target datalayout = "e-m:e-p270:32:32-p271:32:32-p272:64:64-i64:64-i128:128-f80:128-n8:16:32:64-S128"
target triple = "x86_64-pc-linux-gnu"

%struct.H5O_msg_class_t = type { i32, ptr, i64, i32, ptr, ptr, ptr, ptr, ptr, ptr, ptr, ptr, ptr, ptr, ptr, ptr, ptr, ptr, ptr, ptr }
%struct.H5O_ainfo_t = type { i8, i8, i32, i64, i64, i64, i64 }
%struct.H5O_mesg_operator_t = type { i32, %union.anon.0 }
%union.anon.0 = type { ptr }
%struct.H5O_loc_t = type { ptr, i64, i8 }
%struct.H5O_t = type { %struct.H5C_cache_entry_t, i64, i64, i8, i64, i8, i32, i8, i8, i64, i64, i64, i64, i32, i32, i64, i64, ptr, i64, i64, i64, i64, ptr, i8, ptr }
%struct.H5C_cache_entry_t = type { ptr, i64, i64, ptr, i8, ptr, i8, i8, i8, i8, i32, i8, i8, i8, i8, i8, i32, ptr, i32, i32, i32, i32, i32, i8, i8, ptr, ptr, ptr, ptr, ptr, ptr, i8, i32, i8, i64, ptr, i64, i64, i32, i8, i32, i32, i8, ptr, ptr, ptr }
%struct.H5O_iter_rm_t = type { ptr, ptr, i8 }

@.str = private unnamed_addr constant [106 x i8] c"generated/home/dtcxzyw/WorkSpace/Projects/compilers/llvm-opt-benchmark/bench/hdf5/hdf5/src/H5Oattribute.c\00", align 1
@H5E_ATTR_g = external global i64, align 8
@H5E_CANTPIN_g = external global i64, align 8
@.str.1 = private unnamed_addr constant [28 x i8] c"unable to pin object header\00", align 1
@H5E_CANTGET_g = external global i64, align 8
@.str.3 = private unnamed_addr constant [39 x i8] c"can't check for attribute info message\00", align 1
@H5O_MSG_ATTR = external constant [1 x %struct.H5O_msg_class_t], align 16
@H5E_CANTUPDATE_g = external global i64, align 8
@H5E_CANTDELETE_g = external global i64, align 8
@.str.15 = private unnamed_addr constant [32 x i8] c"unable to update time on object\00", align 1
@H5E_CANTUNPIN_g = external global i64, align 8
@.str.16 = private unnamed_addr constant [30 x i8] c"unable to unpin object header\00", align 1
@H5E_NOTFOUND_g = external global i64, align 8
@.str.26 = private unnamed_addr constant [23 x i8] c"can't locate attribute\00", align 1
@__func__.H5O__attr_remove = private unnamed_addr constant [17 x i8] c"H5O__attr_remove\00", align 1
@.str.42 = private unnamed_addr constant [44 x i8] c"unable to delete attribute in dense storage\00", align 1
@.str.43 = private unnamed_addr constant [25 x i8] c"error deleting attribute\00", align 1
@.str.44 = private unnamed_addr constant [32 x i8] c"unable to update attribute info\00", align 1

; Function Attrs: nounwind uwtable
define i32 @H5O__attr_remove(ptr noundef %0, ptr noundef %1) #0 {
  %3 = alloca ptr, align 8
  %4 = alloca ptr, align 8
  %5 = alloca ptr, align 8
  %6 = alloca %struct.H5O_ainfo_t, align 8
  %7 = alloca i32, align 4
  %8 = alloca i32, align 4
  %9 = alloca i64, align 8
  %10 = alloca i8, align 1
  %11 = alloca %struct.H5O_iter_rm_t, align 8
  %12 = alloca %struct.H5O_mesg_operator_t, align 8
  store ptr %0, ptr %3, align 8
  store ptr %1, ptr %4, align 8
  store ptr null, ptr %5, align 8
  store i32 0, ptr %7, align 4
  store i32 0, ptr %8, align 4
  store i64 -1, ptr %9, align 8
  store i8 0, ptr %10, align 1
  %13 = load ptr, ptr %3, align 8
  %14 = getelementptr inbounds %struct.H5O_loc_t, ptr %13, i32 0, i32 1
  %15 = load i64, ptr %14, align 8
  call void @H5AC_tag(i64 noundef %15, ptr noundef %9)
  %16 = load ptr, ptr %3, align 8
  %17 = call ptr @H5O_pin(ptr noundef %16)
  store ptr %17, ptr %5, align 8
  %18 = icmp eq ptr null, %17
  br i1 %18, label %19, label %34

19:                                               ; preds = %2
  br label %20

20:                                               ; preds = %19
  br label %21

21:                                               ; preds = %20
  br label %22

22:                                               ; preds = %21
  %23 = load i64, ptr @H5E_ATTR_g, align 8
  %24 = load i64, ptr @H5E_CANTPIN_g, align 8
  %25 = call i32 (ptr, ptr, i32, i64, i64, ptr, ...) @H5E_printf_stack(ptr noundef @.str, ptr noundef @__func__.H5O__attr_remove, i32 noundef 1475, i64 noundef %23, i64 noundef %24, ptr noundef @.str.1)
  br label %26

26:                                               ; preds = %22
  store i8 1, ptr %10, align 1
  %27 = load i8, ptr %10, align 1
  %28 = trunc i8 %27 to i1
  %29 = zext i1 %28 to i8
  store i8 %29, ptr %10, align 1
  br label %30

30:                                               ; preds = %26
  br label %31

31:                                               ; preds = %30
  store i32 -1, ptr %8, align 4
  br label %189

32:                                               ; No predecessors!
  br label %33

33:                                               ; preds = %32
  br label %34

34:                                               ; preds = %33, %2
  %35 = getelementptr inbounds %struct.H5O_ainfo_t, ptr %6, i32 0, i32 5
  store i64 -1, ptr %35, align 8
  %36 = load ptr, ptr %5, align 8
  %37 = getelementptr inbounds %struct.H5O_t, ptr %36, i32 0, i32 7
  %38 = load i8, ptr %37, align 8
  %39 = zext i8 %38 to i32
  %40 = icmp sgt i32 %39, 1
  br i1 %40, label %41, label %64

41:                                               ; preds = %34
  %42 = load ptr, ptr %3, align 8
  %43 = getelementptr inbounds %struct.H5O_loc_t, ptr %42, i32 0, i32 0
  %44 = load ptr, ptr %43, align 8
  %45 = load ptr, ptr %5, align 8
  %46 = call i32 @H5A__get_ainfo(ptr noundef %44, ptr noundef %45, ptr noundef %6)
  store i32 %46, ptr %7, align 4
  %47 = icmp slt i32 %46, 0
  br i1 %47, label %48, label %63

48:                                               ; preds = %41
  br label %49

49:                                               ; preds = %48
  br label %50

50:                                               ; preds = %49
  br label %51

51:                                               ; preds = %50
  %52 = load i64, ptr @H5E_ATTR_g, align 8
  %53 = load i64, ptr @H5E_CANTGET_g, align 8
  %54 = call i32 (ptr, ptr, i32, i64, i64, ptr, ...) @H5E_printf_stack(ptr noundef @.str, ptr noundef @__func__.H5O__attr_remove, i32 noundef 1482, i64 noundef %52, i64 noundef %53, ptr noundef @.str.3)
  br label %55

55:                                               ; preds = %51
  store i8 1, ptr %10, align 1
  %56 = load i8, ptr %10, align 1
  %57 = trunc i8 %56 to i1
  %58 = zext i1 %57 to i8
  store i8 %58, ptr %10, align 1
  br label %59

59:                                               ; preds = %55
  br label %60

60:                                               ; preds = %59
  store i32 -1, ptr %8, align 4
  br label %189

61:                                               ; No predecessors!
  br label %62

62:                                               ; preds = %61
  br label %63

63:                                               ; preds = %62, %41
  br label %64

64:                                               ; preds = %63, %34
  %65 = getelementptr inbounds %struct.H5O_ainfo_t, ptr %6, i32 0, i32 5
  %66 = load i64, ptr %65, align 8
  %67 = icmp ne i64 %66, -1
  br i1 %67, label %68, label %91

68:                                               ; preds = %64
  %69 = load ptr, ptr %3, align 8
  %70 = getelementptr inbounds %struct.H5O_loc_t, ptr %69, i32 0, i32 0
  %71 = load ptr, ptr %70, align 8
  %72 = load ptr, ptr %4, align 8
  %73 = call i32 @H5A__dense_remove(ptr noundef %71, ptr noundef %6, ptr noundef %72)
  %74 = icmp slt i32 %73, 0
  br i1 %74, label %75, label %90

75:                                               ; preds = %68
  br label %76

76:                                               ; preds = %75
  br label %77

77:                                               ; preds = %76
  br label %78

78:                                               ; preds = %77
  %79 = load i64, ptr @H5E_ATTR_g, align 8
  %80 = load i64, ptr @H5E_CANTDELETE_g, align 8
  %81 = call i32 (ptr, ptr, i32, i64, i64, ptr, ...) @H5E_printf_stack(ptr noundef @.str, ptr noundef @__func__.H5O__attr_remove, i32 noundef 1489, i64 noundef %79, i64 noundef %80, ptr noundef @.str.42)
  br label %82

82:                                               ; preds = %78
  store i8 1, ptr %10, align 1
  %83 = load i8, ptr %10, align 1
  %84 = trunc i8 %83 to i1
  %85 = zext i1 %84 to i8
  store i8 %85, ptr %10, align 1
  br label %86

86:                                               ; preds = %82
  br label %87

87:                                               ; preds = %86
  store i32 -1, ptr %8, align 4
  br label %189

88:                                               ; No predecessors!
  br label %89

89:                                               ; preds = %88
  br label %90

90:                                               ; preds = %89, %68
  br label %142

91:                                               ; preds = %64
  %92 = load ptr, ptr %3, align 8
  %93 = getelementptr inbounds %struct.H5O_loc_t, ptr %92, i32 0, i32 0
  %94 = load ptr, ptr %93, align 8
  %95 = getelementptr inbounds %struct.H5O_iter_rm_t, ptr %11, i32 0, i32 0
  store ptr %94, ptr %95, align 8
  %96 = load ptr, ptr %4, align 8
  %97 = getelementptr inbounds %struct.H5O_iter_rm_t, ptr %11, i32 0, i32 1
  store ptr %96, ptr %97, align 8
  %98 = getelementptr inbounds %struct.H5O_iter_rm_t, ptr %11, i32 0, i32 2
  store i8 0, ptr %98, align 8
  %99 = getelementptr inbounds %struct.H5O_mesg_operator_t, ptr %12, i32 0, i32 0
  store i32 1, ptr %99, align 8
  %100 = getelementptr inbounds %struct.H5O_mesg_operator_t, ptr %12, i32 0, i32 1
  store ptr @H5O__attr_remove_cb, ptr %100, align 8
  %101 = load ptr, ptr %3, align 8
  %102 = getelementptr inbounds %struct.H5O_loc_t, ptr %101, i32 0, i32 0
  %103 = load ptr, ptr %102, align 8
  %104 = load ptr, ptr %5, align 8
  %105 = call i32 @H5O__msg_iterate_real(ptr noundef %103, ptr noundef %104, ptr noundef @H5O_MSG_ATTR, ptr noundef %12, ptr noundef %11)
  %106 = icmp slt i32 %105, 0
  br i1 %106, label %107, label %122

107:                                              ; preds = %91
  br label %108

108:                                              ; preds = %107
  br label %109

109:                                              ; preds = %108
  br label %110

110:                                              ; preds = %109
  %111 = load i64, ptr @H5E_ATTR_g, align 8
  %112 = load i64, ptr @H5E_CANTDELETE_g, align 8
  %113 = call i32 (ptr, ptr, i32, i64, i64, ptr, ...) @H5E_printf_stack(ptr noundef @.str, ptr noundef @__func__.H5O__attr_remove, i32 noundef 1504, i64 noundef %111, i64 noundef %112, ptr noundef @.str.43)
  br label %114

114:                                              ; preds = %110
  store i8 1, ptr %10, align 1
  %115 = load i8, ptr %10, align 1
  %116 = trunc i8 %115 to i1
  %117 = zext i1 %116 to i8
  store i8 %117, ptr %10, align 1
  br label %118

118:                                              ; preds = %114
  br label %119

119:                                              ; preds = %118
  store i32 -1, ptr %8, align 4
  br label %189

120:                                              ; No predecessors!
  br label %121

121:                                              ; preds = %120
  br label %122

122:                                              ; preds = %121, %91
  %123 = getelementptr inbounds %struct.H5O_iter_rm_t, ptr %11, i32 0, i32 2
  %124 = load i8, ptr %123, align 8
  %125 = trunc i8 %124 to i1
  br i1 %125, label %141, label %126

126:                                              ; preds = %122
  br label %127

127:                                              ; preds = %126
  br label %128

128:                                              ; preds = %127
  br label %129

129:                                              ; preds = %128
  %130 = load i64, ptr @H5E_ATTR_g, align 8
  %131 = load i64, ptr @H5E_NOTFOUND_g, align 8
  %132 = call i32 (ptr, ptr, i32, i64, i64, ptr, ...) @H5E_printf_stack(ptr noundef @.str, ptr noundef @__func__.H5O__attr_remove, i32 noundef 1508, i64 noundef %130, i64 noundef %131, ptr noundef @.str.26)
  br label %133

133:                                              ; preds = %129
  store i8 1, ptr %10, align 1
  %134 = load i8, ptr %10, align 1
  %135 = trunc i8 %134 to i1
  %136 = zext i1 %135 to i8
  store i8 %136, ptr %10, align 1
  br label %137

137:                                              ; preds = %133
  br label %138

138:                                              ; preds = %137
  store i32 -1, ptr %8, align 4
  br label %189

139:                                              ; No predecessors!
  br label %140

140:                                              ; preds = %139
  br label %141

141:                                              ; preds = %140, %122
  br label %142

142:                                              ; preds = %141, %90
  %143 = load i32, ptr %7, align 4
  %144 = icmp ne i32 %143, 0
  br i1 %144, label %145, label %166

145:                                              ; preds = %142
  %146 = load ptr, ptr %3, align 8
  %147 = load ptr, ptr %5, align 8
  %148 = call i32 @H5O__attr_remove_update(ptr noundef %146, ptr noundef %147, ptr noundef %6)
  %149 = icmp slt i32 %148, 0
  br i1 %149, label %150, label %165

150:                                              ; preds = %145
  br label %151

151:                                              ; preds = %150
  br label %152

152:                                              ; preds = %151
  br label %153

153:                                              ; preds = %152
  %154 = load i64, ptr @H5E_ATTR_g, align 8
  %155 = load i64, ptr @H5E_CANTUPDATE_g, align 8
  %156 = call i32 (ptr, ptr, i32, i64, i64, ptr, ...) @H5E_printf_stack(ptr noundef @.str, ptr noundef @__func__.H5O__attr_remove, i32 noundef 1514, i64 noundef %154, i64 noundef %155, ptr noundef @.str.44)
  br label %157

157:                                              ; preds = %153
  store i8 1, ptr %10, align 1
  %158 = load i8, ptr %10, align 1
  %159 = trunc i8 %158 to i1
  %160 = zext i1 %159 to i8
  store i8 %160, ptr %10, align 1
  br label %161

161:                                              ; preds = %157
  br label %162

162:                                              ; preds = %161
  store i32 -1, ptr %8, align 4
  br label %189

163:                                              ; No predecessors!
  br label %164

164:                                              ; preds = %163
  br label %165

165:                                              ; preds = %164, %145
  br label %166

166:                                              ; preds = %165, %142
  %167 = load ptr, ptr %3, align 8
  %168 = getelementptr inbounds %struct.H5O_loc_t, ptr %167, i32 0, i32 0
  %169 = load ptr, ptr %168, align 8
  %170 = load ptr, ptr %5, align 8
  %171 = call i32 @H5O_touch_oh(ptr noundef %169, ptr noundef %170, i1 noundef zeroext false)
  %172 = icmp slt i32 %171, 0
  br i1 %172, label %173, label %188

173:                                              ; preds = %166
  br label %174

174:                                              ; preds = %173
  br label %175

175:                                              ; preds = %174
  br label %176

176:                                              ; preds = %175
  %177 = load i64, ptr @H5E_ATTR_g, align 8
  %178 = load i64, ptr @H5E_CANTUPDATE_g, align 8
  %179 = call i32 (ptr, ptr, i32, i64, i64, ptr, ...) @H5E_printf_stack(ptr noundef @.str, ptr noundef @__func__.H5O__attr_remove, i32 noundef 1518, i64 noundef %177, i64 noundef %178, ptr noundef @.str.15)
  br label %180

180:                                              ; preds = %176
  store i8 1, ptr %10, align 1
  %181 = load i8, ptr %10, align 1
  %182 = trunc i8 %181 to i1
  %183 = zext i1 %182 to i8
  store i8 %183, ptr %10, align 1
  br label %184

184:                                              ; preds = %180
  br label %185

185:                                              ; preds = %184
  store i32 -1, ptr %8, align 4
  br label %189

186:                                              ; No predecessors!
  br label %187

187:                                              ; preds = %186
  br label %188

188:                                              ; preds = %187, %166
  br label %189

189:                                              ; preds = %188, %185, %162, %138, %119, %87, %60, %31
  %190 = load ptr, ptr %5, align 8
  %191 = icmp ne ptr %190, null
  br i1 %191, label %192, label %209

192:                                              ; preds = %189
  %193 = load ptr, ptr %5, align 8
  %194 = call i32 @H5O_unpin(ptr noundef %193)
  %195 = icmp slt i32 %194, 0
  br i1 %195, label %196, label %209

196:                                              ; preds = %192
  br label %197

197:                                              ; preds = %196
  br label %198

198:                                              ; preds = %197
  br label %199

199:                                              ; preds = %198
  %200 = load i64, ptr @H5E_ATTR_g, align 8
  %201 = load i64, ptr @H5E_CANTUNPIN_g, align 8
  %202 = call i32 (ptr, ptr, i32, i64, i64, ptr, ...) @H5E_printf_stack(ptr noundef @.str, ptr noundef @__func__.H5O__attr_remove, i32 noundef 1522, i64 noundef %200, i64 noundef %201, ptr noundef @.str.16)
  br label %203

203:                                              ; preds = %199
  store i8 1, ptr %10, align 1
  %204 = load i8, ptr %10, align 1
  %205 = trunc i8 %204 to i1
  %206 = zext i1 %205 to i8
  store i8 %206, ptr %10, align 1
  br label %207

207:                                              ; preds = %203
  store i32 -1, ptr %8, align 4
  br label %208

208:                                              ; preds = %207
  br label %209

209:                                              ; preds = %208, %192, %189
  %210 = load i64, ptr %9, align 8
  call void @H5AC_tag(i64 noundef %210, ptr noundef null)
  %211 = load i32, ptr %8, align 4
  ret i32 %211
}