; Function Attrs: nounwind uwtable
define range(i32 -1, 1) i32 @H5O__attr_remove(ptr noundef %0, ptr noundef %1) local_unnamed_addr #0 {
  %3 = alloca %struct.H5O_ainfo_t, align 8
  %4 = alloca i64, align 8
  %5 = alloca %struct.H5O_iter_rm_t, align 8
  %6 = alloca %struct.H5O_mesg_operator_t, align 8
  store i64 -1, ptr %4, align 8
  %7 = getelementptr inbounds i8, ptr %0, i64 8
  %8 = load i64, ptr %7, align 8
  call void @H5AC_tag(i64 noundef %8, ptr noundef nonnull %4) #9
  %9 = call ptr @H5O_pin(ptr noundef %0) #9
  %10 = icmp eq ptr %9, null
  br i1 %10, label %66, label %11

11:                                               ; preds = %2
  %12 = getelementptr inbounds i8, ptr %3, i64 24
  store i64 -1, ptr %12, align 8
  %13 = getelementptr inbounds i8, ptr %9, i64 288
  %14 = load i8, ptr %13, align 8
  %15 = icmp ugt i8 %14, 1
  br i1 %15, label %16, label %.thread

16:                                               ; preds = %11
  %17 = load ptr, ptr %0, align 8
  %18 = call i32 @H5A__get_ainfo(ptr noundef %17, ptr noundef nonnull %9, ptr noundef nonnull %3) #9
  %19 = icmp slt i32 %18, 0
  br i1 %19, label %20, label %24

20:                                               ; preds = %16
  %21 = load i64, ptr @H5E_ATTR_g, align 8
  %22 = load i64, ptr @H5E_CANTGET_g, align 8
  %23 = call i32 (ptr, ptr, i32, i64, i64, ptr, ...) @H5E_printf_stack(ptr noundef nonnull @.str, ptr noundef nonnull @__func__.H5O__attr_remove, i32 noundef 1482, i64 noundef %21, i64 noundef %22, ptr noundef nonnull @.str.3) #9
  br label %70

24:                                               ; preds = %16
  %.pr = load i64, ptr %12, align 8
  %.not = icmp eq i64 %.pr, -1
  br i1 %.not, label %.thread, label %25

25:                                               ; preds = %24
  %26 = load ptr, ptr %0, align 8
  %27 = call i32 @H5A__dense_remove(ptr noundef %26, ptr noundef nonnull %3, ptr noundef %1) #9
  %28 = icmp slt i32 %27, 0
  br i1 %28, label %29, label %50

29:                                               ; preds = %25
  %30 = load i64, ptr @H5E_ATTR_g, align 8
  %31 = load i64, ptr @H5E_CANTDELETE_g, align 8
  %32 = call i32 (ptr, ptr, i32, i64, i64, ptr, ...) @H5E_printf_stack(ptr noundef nonnull @.str, ptr noundef nonnull @__func__.H5O__attr_remove, i32 noundef 1489, i64 noundef %30, i64 noundef %31, ptr noundef nonnull @.str.42) #9
  br label %70

.thread:                                          ; preds = %11, %24
  %.02635 = phi i32 [ %18, %24 ], [ 0, %11 ]
  %33 = load ptr, ptr %0, align 8
  store ptr %33, ptr %5, align 8
  %34 = getelementptr inbounds i8, ptr %5, i64 8
  store ptr %1, ptr %34, align 8
  %35 = getelementptr inbounds i8, ptr %5, i64 16
  store i8 0, ptr %35, align 8
  store i32 1, ptr %6, align 8
  %36 = getelementptr inbounds i8, ptr %6, i64 8
  store ptr @H5O__attr_remove_cb, ptr %36, align 8
  %37 = call i32 @H5O__msg_iterate_real(ptr noundef %33, ptr noundef nonnull %9, ptr noundef nonnull @H5O_MSG_ATTR, ptr noundef nonnull %6, ptr noundef nonnull %5) #9
  %38 = icmp slt i32 %37, 0
  br i1 %38, label %39, label %43

39:                                               ; preds = %.thread
  %40 = load i64, ptr @H5E_ATTR_g, align 8
  %41 = load i64, ptr @H5E_CANTDELETE_g, align 8
  %42 = call i32 (ptr, ptr, i32, i64, i64, ptr, ...) @H5E_printf_stack(ptr noundef nonnull @.str, ptr noundef nonnull @__func__.H5O__attr_remove, i32 noundef 1504, i64 noundef %40, i64 noundef %41, ptr noundef nonnull @.str.43) #9
  br label %70

43:                                               ; preds = %.thread
  %44 = load i8, ptr %35, align 8
  %45 = trunc i8 %44 to i1
  br i1 %45, label %50, label %46

46:                                               ; preds = %43
  %47 = load i64, ptr @H5E_ATTR_g, align 8
  %48 = load i64, ptr @H5E_NOTFOUND_g, align 8
  %49 = call i32 (ptr, ptr, i32, i64, i64, ptr, ...) @H5E_printf_stack(ptr noundef nonnull @.str, ptr noundef nonnull @__func__.H5O__attr_remove, i32 noundef 1508, i64 noundef %47, i64 noundef %48, ptr noundef nonnull @.str.26) #9
  br label %70

50:                                               ; preds = %43, %25
  %.02634 = phi i32 [ %.02635, %43 ], [ %18, %25 ]
  %.not30 = icmp eq i32 %.02634, 0
  br i1 %.not30, label %58, label %51

51:                                               ; preds = %50
  %52 = call fastcc i32 @H5O__attr_remove_update(ptr noundef nonnull %0, ptr noundef nonnull %9, ptr noundef nonnull %3)
  %53 = icmp slt i32 %52, 0
  br i1 %53, label %54, label %58

54:                                               ; preds = %51
  %55 = load i64, ptr @H5E_ATTR_g, align 8
  %56 = load i64, ptr @H5E_CANTUPDATE_g, align 8
  %57 = call i32 (ptr, ptr, i32, i64, i64, ptr, ...) @H5E_printf_stack(ptr noundef nonnull @.str, ptr noundef nonnull @__func__.H5O__attr_remove, i32 noundef 1514, i64 noundef %55, i64 noundef %56, ptr noundef nonnull @.str.44) #9
  br label %70

58:                                               ; preds = %51, %50
  %59 = load ptr, ptr %0, align 8
  %60 = call i32 @H5O_touch_oh(ptr noundef %59, ptr noundef nonnull %9, i1 noundef zeroext false) #9
  %61 = icmp slt i32 %60, 0
  br i1 %61, label %62, label %70

62:                                               ; preds = %58
  %63 = load i64, ptr @H5E_ATTR_g, align 8
  %64 = load i64, ptr @H5E_CANTUPDATE_g, align 8
  %65 = call i32 (ptr, ptr, i32, i64, i64, ptr, ...) @H5E_printf_stack(ptr noundef nonnull @.str, ptr noundef nonnull @__func__.H5O__attr_remove, i32 noundef 1518, i64 noundef %63, i64 noundef %64, ptr noundef nonnull @.str.15) #9
  br label %70

66:                                               ; preds = %2
  %67 = load i64, ptr @H5E_ATTR_g, align 8
  %68 = load i64, ptr @H5E_CANTPIN_g, align 8
  %69 = call i32 (ptr, ptr, i32, i64, i64, ptr, ...) @H5E_printf_stack(ptr noundef nonnull @.str, ptr noundef nonnull @__func__.H5O__attr_remove, i32 noundef 1475, i64 noundef %67, i64 noundef %68, ptr noundef nonnull @.str.1) #9
  br label %77

70:                                               ; preds = %58, %62, %54, %46, %39, %29, %20
  %.0.ph = phi i32 [ -1, %46 ], [ -1, %39 ], [ 0, %58 ], [ -1, %62 ], [ -1, %54 ], [ -1, %29 ], [ -1, %20 ]
  %71 = call i32 @H5O_unpin(ptr noundef nonnull %9) #9
  %72 = icmp slt i32 %71, 0
  br i1 %72, label %73, label %77

73:                                               ; preds = %70
  %74 = load i64, ptr @H5E_ATTR_g, align 8
  %75 = load i64, ptr @H5E_CANTUNPIN_g, align 8
  %76 = call i32 (ptr, ptr, i32, i64, i64, ptr, ...) @H5E_printf_stack(ptr noundef nonnull @.str, ptr noundef nonnull @__func__.H5O__attr_remove, i32 noundef 1522, i64 noundef %74, i64 noundef %75, ptr noundef nonnull @.str.16) #9
  br label %77

77:                                               ; preds = %66, %73, %70
  %.1 = phi i32 [ -1, %73 ], [ %.0.ph, %70 ], [ -1, %66 ]
  %78 = load i64, ptr %4, align 8
  call void @H5AC_tag(i64 noundef %78, ptr noundef null) #9
  ret i32 %.1
}